target datalayout = "e-m:e-p270:32:32-p271:32:32-p272:64:64-i64:64-i128:128-f80:128-n8:16:32:64-S128"
target triple = "x86_64-unknown-linux-gnu"

%struct.grpc_slice = type { ptr, %"union.grpc_slice::grpc_slice_data" }
%"union.grpc_slice::grpc_slice_data" = type { %"struct.grpc_slice::grpc_slice_data::grpc_slice_refcounted", [8 x i8] }
%"struct.grpc_slice::grpc_slice_data::grpc_slice_refcounted" = type { i64, ptr }
%"struct.grpc_slice::grpc_slice_data::grpc_slice_inlined" = type { i8, [23 x i8] }

@.str.1 = private unnamed_addr constant [143 x i8] c"generated/home/dtcxzyw/WorkSpace/Projects/compilers/llvm-opt-benchmark/bench/grpc/grpc/src/core/ext/transport/chttp2/transport/frame_goaway.cc\00", align 1
@.str.4 = private unnamed_addr constant [51 x i8] c"GRPC_SLICE_LENGTH(debug_data) < UINT32_MAX - 4 - 4\00", align 1
@.str.5 = private unnamed_addr constant [32 x i8] c"p == GRPC_SLICE_END_PTR(header)\00", align 1

; Function Attrs: mustprogress uwtable
define void @_Z25grpc_chttp2_goaway_appendjjRK10grpc_sliceP17grpc_slice_buffer(i32 noundef %last_stream_id, i32 noundef %error_code, ptr noundef nonnull align 8 dereferenceable(32) %debug_data, ptr noundef %slice_buffer) #5 {
entry:
  %last_stream_id.addr = alloca i32, align 4
  %error_code.addr = alloca i32, align 4
  %debug_data.addr = alloca ptr, align 8
  %slice_buffer.addr = alloca ptr, align 8
  %header = alloca %struct.grpc_slice, align 8
  %p = alloca ptr, align 8
  %frame_length = alloca i32, align 4
  %agg.tmp = alloca %struct.grpc_slice, align 8
  %agg.tmp88 = alloca %struct.grpc_slice, align 8
  store i32 %last_stream_id, ptr %last_stream_id.addr, align 4
  store i32 %error_code, ptr %error_code.addr, align 4
  store ptr %debug_data, ptr %debug_data.addr, align 8
  store ptr %slice_buffer, ptr %slice_buffer.addr, align 8
  call void @grpc_slice_malloc(ptr sret(%struct.grpc_slice) align 8 %header, i64 noundef 17)
  %refcount = getelementptr inbounds %struct.grpc_slice, ptr %header, i32 0, i32 0
  %0 = load ptr, ptr %refcount, align 8
  %tobool = icmp ne ptr %0, null
  br i1 %tobool, label %cond.true, label %cond.false

cond.true:                                        ; preds = %entry
  %data = getelementptr inbounds %struct.grpc_slice, ptr %header, i32 0, i32 1
  %bytes = getelementptr inbounds %"struct.grpc_slice::grpc_slice_data::grpc_slice_refcounted", ptr %data, i32 0, i32 1
  %1 = load ptr, ptr %bytes, align 8
  br label %cond.end

cond.false:                                       ; preds = %entry
  %data1 = getelementptr inbounds %struct.grpc_slice, ptr %header, i32 0, i32 1
  %bytes2 = getelementptr inbounds %"struct.grpc_slice::grpc_slice_data::grpc_slice_inlined", ptr %data1, i32 0, i32 1
  %arraydecay = getelementptr inbounds [23 x i8], ptr %bytes2, i64 0, i64 0
  br label %cond.end

cond.end:                                         ; preds = %cond.false, %cond.true
  %cond = phi ptr [ %1, %cond.true ], [ %arraydecay, %cond.false ]
  store ptr %cond, ptr %p, align 8
  br label %do.body

do.body:                                          ; preds = %cond.end
  %2 = load ptr, ptr %debug_data.addr, align 8
  %refcount3 = getelementptr inbounds %struct.grpc_slice, ptr %2, i32 0, i32 0
  %3 = load ptr, ptr %refcount3, align 8
  %tobool4 = icmp ne ptr %3, null
  br i1 %tobool4, label %cond.true5, label %cond.false7

cond.true5:                                       ; preds = %do.body
  %4 = load ptr, ptr %debug_data.addr, align 8
  %data6 = getelementptr inbounds %struct.grpc_slice, ptr %4, i32 0, i32 1
  %length = getelementptr inbounds %"struct.grpc_slice::grpc_slice_data::grpc_slice_refcounted", ptr %data6, i32 0, i32 0
  %5 = load i64, ptr %length, align 8
  br label %cond.end10

cond.false7:                                      ; preds = %do.body
  %6 = load ptr, ptr %debug_data.addr, align 8
  %data8 = getelementptr inbounds %struct.grpc_slice, ptr %6, i32 0, i32 1
  %length9 = getelementptr inbounds %"struct.grpc_slice::grpc_slice_data::grpc_slice_inlined", ptr %data8, i32 0, i32 0
  %7 = load i8, ptr %length9, align 8
  %conv = zext i8 %7 to i64
  br label %cond.end10

cond.end10:                                       ; preds = %cond.false7, %cond.true5
  %cond11 = phi i64 [ %5, %cond.true5 ], [ %conv, %cond.false7 ]
  %cmp = icmp ult i64 %cond11, 4294967287
  %lnot = xor i1 %cmp, true
  br i1 %lnot, label %if.then, label %if.end

if.then:                                          ; preds = %cond.end10
  call void @gpr_assertion_failed(ptr noundef @.str.1, i32 noundef 161, ptr noundef @.str.4) #13
  unreachable

if.end:                                           ; preds = %cond.end10
  br label %do.end

do.end:                                           ; preds = %if.end
  %8 = load ptr, ptr %debug_data.addr, align 8
  %refcount13 = getelementptr inbounds %struct.grpc_slice, ptr %8, i32 0, i32 0
  %9 = load ptr, ptr %refcount13, align 8
  %tobool14 = icmp ne ptr %9, null
  br i1 %tobool14, label %cond.true15, label %cond.false18

cond.true15:                                      ; preds = %do.end
  %10 = load ptr, ptr %debug_data.addr, align 8
  %data16 = getelementptr inbounds %struct.grpc_slice, ptr %10, i32 0, i32 1
  %length17 = getelementptr inbounds %"struct.grpc_slice::grpc_slice_data::grpc_slice_refcounted", ptr %data16, i32 0, i32 0
  %11 = load i64, ptr %length17, align 8
  br label %cond.end22

cond.false18:                                     ; preds = %do.end
  %12 = load ptr, ptr %debug_data.addr, align 8
  %data19 = getelementptr inbounds %struct.grpc_slice, ptr %12, i32 0, i32 1
  %length20 = getelementptr inbounds %"struct.grpc_slice::grpc_slice_data::grpc_slice_inlined", ptr %data19, i32 0, i32 0
  %13 = load i8, ptr %length20, align 8
  %conv21 = zext i8 %13 to i64
  br label %cond.end22

cond.end22:                                       ; preds = %cond.false18, %cond.true15
  %cond23 = phi i64 [ %11, %cond.true15 ], [ %conv21, %cond.false18 ]
  %conv24 = trunc i64 %cond23 to i32
  %add = add i32 8, %conv24
  store i32 %add, ptr %frame_length, align 4
  %14 = load i32, ptr %frame_length, align 4
  %shr = lshr i32 %14, 16
  %conv25 = trunc i32 %shr to i8
  %15 = load ptr, ptr %p, align 8
  %incdec.ptr = getelementptr inbounds i8, ptr %15, i32 1
  store ptr %incdec.ptr, ptr %p, align 8
  store i8 %conv25, ptr %15, align 1
  %16 = load i32, ptr %frame_length, align 4
  %shr26 = lshr i32 %16, 8
  %conv27 = trunc i32 %shr26 to i8
  %17 = load ptr, ptr %p, align 8
  %incdec.ptr28 = getelementptr inbounds i8, ptr %17, i32 1
  store ptr %incdec.ptr28, ptr %p, align 8
  store i8 %conv27, ptr %17, align 1
  %18 = load i32, ptr %frame_length, align 4
  %conv29 = trunc i32 %18 to i8
  %19 = load ptr, ptr %p, align 8
  %incdec.ptr30 = getelementptr inbounds i8, ptr %19, i32 1
  store ptr %incdec.ptr30, ptr %p, align 8
  store i8 %conv29, ptr %19, align 1
  %20 = load ptr, ptr %p, align 8
  %incdec.ptr31 = getelementptr inbounds i8, ptr %20, i32 1
  store ptr %incdec.ptr31, ptr %p, align 8
  store i8 7, ptr %20, align 1
  %21 = load ptr, ptr %p, align 8
  %incdec.ptr32 = getelementptr inbounds i8, ptr %21, i32 1
  store ptr %incdec.ptr32, ptr %p, align 8
  store i8 0, ptr %21, align 1
  %22 = load ptr, ptr %p, align 8
  %incdec.ptr33 = getelementptr inbounds i8, ptr %22, i32 1
  store ptr %incdec.ptr33, ptr %p, align 8
  store i8 0, ptr %22, align 1
  %23 = load ptr, ptr %p, align 8
  %incdec.ptr34 = getelementptr inbounds i8, ptr %23, i32 1
  store ptr %incdec.ptr34, ptr %p, align 8
  store i8 0, ptr %23, align 1
  %24 = load ptr, ptr %p, align 8
  %incdec.ptr35 = getelementptr inbounds i8, ptr %24, i32 1
  store ptr %incdec.ptr35, ptr %p, align 8
  store i8 0, ptr %24, align 1
  %25 = load ptr, ptr %p, align 8
  %incdec.ptr36 = getelementptr inbounds i8, ptr %25, i32 1
  store ptr %incdec.ptr36, ptr %p, align 8
  store i8 0, ptr %25, align 1
  %26 = load i32, ptr %last_stream_id.addr, align 4
  %shr37 = lshr i32 %26, 24
  %conv38 = trunc i32 %shr37 to i8
  %27 = load ptr, ptr %p, align 8
  %incdec.ptr39 = getelementptr inbounds i8, ptr %27, i32 1
  store ptr %incdec.ptr39, ptr %p, align 8
  store i8 %conv38, ptr %27, align 1
  %28 = load i32, ptr %last_stream_id.addr, align 4
  %shr40 = lshr i32 %28, 16
  %conv41 = trunc i32 %shr40 to i8
  %29 = load ptr, ptr %p, align 8
  %incdec.ptr42 = getelementptr inbounds i8, ptr %29, i32 1
  store ptr %incdec.ptr42, ptr %p, align 8
  store i8 %conv41, ptr %29, align 1
  %30 = load i32, ptr %last_stream_id.addr, align 4
  %shr43 = lshr i32 %30, 8
  %conv44 = trunc i32 %shr43 to i8
  %31 = load ptr, ptr %p, align 8
  %incdec.ptr45 = getelementptr inbounds i8, ptr %31, i32 1
  store ptr %incdec.ptr45, ptr %p, align 8
  store i8 %conv44, ptr %31, align 1
  %32 = load i32, ptr %last_stream_id.addr, align 4
  %conv46 = trunc i32 %32 to i8
  %33 = load ptr, ptr %p, align 8
  %incdec.ptr47 = getelementptr inbounds i8, ptr %33, i32 1
  store ptr %incdec.ptr47, ptr %p, align 8
  store i8 %conv46, ptr %33, align 1
  %34 = load i32, ptr %error_code.addr, align 4
  %shr48 = lshr i32 %34, 24
  %conv49 = trunc i32 %shr48 to i8
  %35 = load ptr, ptr %p, align 8
  %incdec.ptr50 = getelementptr inbounds i8, ptr %35, i32 1
  store ptr %incdec.ptr50, ptr %p, align 8
  store i8 %conv49, ptr %35, align 1
  %36 = load i32, ptr %error_code.addr, align 4
  %shr51 = lshr i32 %36, 16
  %conv52 = trunc i32 %shr51 to i8
  %37 = load ptr, ptr %p, align 8
  %incdec.ptr53 = getelementptr inbounds i8, ptr %37, i32 1
  store ptr %incdec.ptr53, ptr %p, align 8
  store i8 %conv52, ptr %37, align 1
  %38 = load i32, ptr %error_code.addr, align 4
  %shr54 = lshr i32 %38, 8
  %conv55 = trunc i32 %shr54 to i8
  %39 = load ptr, ptr %p, align 8
  %incdec.ptr56 = getelementptr inbounds i8, ptr %39, i32 1
  store ptr %incdec.ptr56, ptr %p, align 8
  store i8 %conv55, ptr %39, align 1
  %40 = load i32, ptr %error_code.addr, align 4
  %conv57 = trunc i32 %40 to i8
  %41 = load ptr, ptr %p, align 8
  %incdec.ptr58 = getelementptr inbounds i8, ptr %41, i32 1
  store ptr %incdec.ptr58, ptr %p, align 8
  store i8 %conv57, ptr %41, align 1
  br label %do.body59

do.body59:                                        ; preds = %cond.end22
  %42 = load ptr, ptr %p, align 8
  %refcount60 = getelementptr inbounds %struct.grpc_slice, ptr %header, i32 0, i32 0
  %43 = load ptr, ptr %refcount60, align 8
  %tobool61 = icmp ne ptr %43, null
  br i1 %tobool61, label %cond.true62, label %cond.false65

cond.true62:                                      ; preds = %do.body59
  %data63 = getelementptr inbounds %struct.grpc_slice, ptr %header, i32 0, i32 1
  %bytes64 = getelementptr inbounds %"struct.grpc_slice::grpc_slice_data::grpc_slice_refcounted", ptr %data63, i32 0, i32 1
  %44 = load ptr, ptr %bytes64, align 8
  br label %cond.end69

cond.false65:                                     ; preds = %do.body59
  %data66 = getelementptr inbounds %struct.grpc_slice, ptr %header, i32 0, i32 1
  %bytes67 = getelementptr inbounds %"struct.grpc_slice::grpc_slice_data::grpc_slice_inlined", ptr %data66, i32 0, i32 1
  %arraydecay68 = getelementptr inbounds [23 x i8], ptr %bytes67, i64 0, i64 0
  br label %cond.end69

cond.end69:                                       ; preds = %cond.false65, %cond.true62
  %cond70 = phi ptr [ %44, %cond.true62 ], [ %arraydecay68, %cond.false65 ]
  %refcount71 = getelementptr inbounds %struct.grpc_slice, ptr %header, i32 0, i32 0
  %45 = load ptr, ptr %refcount71, align 8
  %tobool72 = icmp ne ptr %45, null
  br i1 %tobool72, label %cond.true73, label %cond.false76

cond.true73:                                      ; preds = %cond.end69
  %data74 = getelementptr inbounds %struct.grpc_slice, ptr %header, i32 0, i32 1
  %length75 = getelementptr inbounds %"struct.grpc_slice::grpc_slice_data::grpc_slice_refcounted", ptr %data74, i32 0, i32 0
  %46 = load i64, ptr %length75, align 8
  br label %cond.end80

cond.false76:                                     ; preds = %cond.end69
  %data77 = getelementptr inbounds %struct.grpc_slice, ptr %header, i32 0, i32 1
  %length78 = getelementptr inbounds %"struct.grpc_slice::grpc_slice_data::grpc_slice_inlined", ptr %data77, i32 0, i32 0
  %47 = load i8, ptr %length78, align 8
  %conv79 = zext i8 %47 to i64
  br label %cond.end80

cond.end80:                                       ; preds = %cond.false76, %cond.true73
  %cond81 = phi i64 [ %46, %cond.true73 ], [ %conv79, %cond.false76 ]
  %add.ptr = getelementptr inbounds i8, ptr %cond70, i64 %cond81
  %cmp82 = icmp eq ptr %42, %add.ptr
  %lnot83 = xor i1 %cmp82, true
  br i1 %lnot83, label %if.then85, label %if.end86

if.then85:                                        ; preds = %cond.end80
  call void @gpr_assertion_failed(ptr noundef @.str.1, i32 noundef 187, ptr noundef @.str.5) #13
  unreachable

if.end86:                                         ; preds = %cond.end80
  br label %do.end87

do.end87:                                         ; preds = %if.end86
  %48 = load ptr, ptr %slice_buffer.addr, align 8
  call void @llvm.memcpy.p0.p0.i64(ptr align 8 %agg.tmp, ptr align 8 %header, i64 32, i1 false)
  call void @grpc_slice_buffer_add(ptr noundef %48, ptr noundef byval(%struct.grpc_slice) align 8 %agg.tmp)
  %49 = load ptr, ptr %slice_buffer.addr, align 8
  %50 = load ptr, ptr %debug_data.addr, align 8
  call void @llvm.memcpy.p0.p0.i64(ptr align 8 %agg.tmp88, ptr align 8 %50, i64 32, i1 false)
  call void @grpc_slice_buffer_add(ptr noundef %49, ptr noundef byval(%struct.grpc_slice) align 8 %agg.tmp88)
  ret void
}