; Function Attrs: mustprogress uwtable
define void @_Z25grpc_chttp2_goaway_appendjjRK10grpc_sliceP17grpc_slice_buffer(i32 noundef %last_stream_id, i32 noundef %error_code, ptr nocapture noundef nonnull readonly align 8 dereferenceable(32) %debug_data, ptr noundef %slice_buffer) local_unnamed_addr #4 {
entry:
  %header = alloca %struct.grpc_slice, align 8
  call void @grpc_slice_malloc(ptr nonnull sret(%struct.grpc_slice) align 8 %header, i64 noundef 17)
  %0 = load ptr, ptr %debug_data, align 8
  %tobool4.not = icmp ne ptr %0, null
  %data6 = getelementptr inbounds i8, ptr %debug_data, i64 8
  %1 = load i64, ptr %data6, align 8
  %2 = icmp ugt i64 %1, 4294967286
  %cond11 = select i1 %tobool4.not, i1 %2, i1 false
  br i1 %cond11, label %if.then, label %do.end

if.then:                                          ; preds = %entry
  call void @gpr_assertion_failed(ptr noundef nonnull @.str.1, i32 noundef 161, ptr noundef nonnull @.str.4) #17
  unreachable

do.end:                                           ; preds = %entry
  %3 = load ptr, ptr %header, align 8
  %tobool.not = icmp eq ptr %3, null
  %bytes2 = getelementptr inbounds i8, ptr %header, i64 9
  %bytes = getelementptr inbounds i8, ptr %header, i64 16
  %4 = load ptr, ptr %bytes, align 8
  %cond = select i1 %tobool.not, ptr %bytes2, ptr %4
  %data = getelementptr inbounds i8, ptr %header, i64 8
  %conv21 = and i64 %1, 255
  %cond23 = select i1 %tobool4.not, i64 %1, i64 %conv21
  %conv24 = trunc i64 %cond23 to i32
  %add = add i32 %conv24, 8
  %shr = lshr i32 %add, 16
  %conv25 = trunc i32 %shr to i8
  %bytes2.sroa.gep = getelementptr inbounds i8, ptr %header, i64 10
  %.sroa.gep = getelementptr inbounds i8, ptr %4, i64 1
  %cond.sroa.sel = select i1 %tobool.not, ptr %bytes2.sroa.gep, ptr %.sroa.gep
  store i8 %conv25, ptr %cond, align 1
  %shr26 = lshr i32 %add, 8
  %conv27 = trunc i32 %shr26 to i8
  %bytes2.sroa.gep33 = getelementptr inbounds i8, ptr %header, i64 11
  %.sroa.gep34 = getelementptr inbounds i8, ptr %4, i64 2
  %cond.sroa.sel35 = select i1 %tobool.not, ptr %bytes2.sroa.gep33, ptr %.sroa.gep34
  store i8 %conv27, ptr %cond.sroa.sel, align 1
  %conv29 = trunc i32 %add to i8
  %bytes2.sroa.gep36 = getelementptr inbounds i8, ptr %header, i64 12
  %.sroa.gep37 = getelementptr inbounds i8, ptr %4, i64 3
  %cond.sroa.sel38 = select i1 %tobool.not, ptr %bytes2.sroa.gep36, ptr %.sroa.gep37
  store i8 %conv29, ptr %cond.sroa.sel35, align 1
  %bytes2.sroa.gep39 = getelementptr inbounds i8, ptr %header, i64 13
  %.sroa.gep40 = getelementptr inbounds i8, ptr %4, i64 4
  %cond.sroa.sel41 = select i1 %tobool.not, ptr %bytes2.sroa.gep39, ptr %.sroa.gep40
  store i8 7, ptr %cond.sroa.sel38, align 1
  %bytes2.sroa.gep42 = getelementptr inbounds i8, ptr %header, i64 14
  %.sroa.gep43 = getelementptr inbounds i8, ptr %4, i64 5
  %cond.sroa.sel44 = select i1 %tobool.not, ptr %bytes2.sroa.gep42, ptr %.sroa.gep43
  store i8 0, ptr %cond.sroa.sel41, align 1
  %bytes2.sroa.gep45 = getelementptr inbounds i8, ptr %header, i64 15
  %.sroa.gep46 = getelementptr inbounds i8, ptr %4, i64 6
  %cond.sroa.sel47 = select i1 %tobool.not, ptr %bytes2.sroa.gep45, ptr %.sroa.gep46
  store i8 0, ptr %cond.sroa.sel44, align 1
  %.sroa.gep49 = getelementptr inbounds i8, ptr %4, i64 7
  %cond.sroa.sel50 = select i1 %tobool.not, ptr %bytes, ptr %.sroa.gep49
  store i8 0, ptr %cond.sroa.sel47, align 1
  %bytes2.sroa.gep51 = getelementptr inbounds i8, ptr %header, i64 17
  %.sroa.gep52 = getelementptr inbounds i8, ptr %4, i64 8
  %cond.sroa.sel53 = select i1 %tobool.not, ptr %bytes2.sroa.gep51, ptr %.sroa.gep52
  store i8 0, ptr %cond.sroa.sel50, align 1
  %bytes2.sroa.gep54 = getelementptr inbounds i8, ptr %header, i64 18
  %.sroa.gep55 = getelementptr inbounds i8, ptr %4, i64 9
  %cond.sroa.sel56 = select i1 %tobool.not, ptr %bytes2.sroa.gep54, ptr %.sroa.gep55
  store i8 0, ptr %cond.sroa.sel53, align 1
  %shr37 = lshr i32 %last_stream_id, 24
  %conv38 = trunc i32 %shr37 to i8
  %bytes2.sroa.gep57 = getelementptr inbounds i8, ptr %header, i64 19
  %.sroa.gep58 = getelementptr inbounds i8, ptr %4, i64 10
  %cond.sroa.sel59 = select i1 %tobool.not, ptr %bytes2.sroa.gep57, ptr %.sroa.gep58
  store i8 %conv38, ptr %cond.sroa.sel56, align 1
  %shr40 = lshr i32 %last_stream_id, 16
  %conv41 = trunc i32 %shr40 to i8
  %bytes2.sroa.gep60 = getelementptr inbounds i8, ptr %header, i64 20
  %.sroa.gep61 = getelementptr inbounds i8, ptr %4, i64 11
  %cond.sroa.sel62 = select i1 %tobool.not, ptr %bytes2.sroa.gep60, ptr %.sroa.gep61
  store i8 %conv41, ptr %cond.sroa.sel59, align 1
  %shr43 = lshr i32 %last_stream_id, 8
  %conv44 = trunc i32 %shr43 to i8
  %bytes2.sroa.gep63 = getelementptr inbounds i8, ptr %header, i64 21
  %.sroa.gep64 = getelementptr inbounds i8, ptr %4, i64 12
  %cond.sroa.sel65 = select i1 %tobool.not, ptr %bytes2.sroa.gep63, ptr %.sroa.gep64
  store i8 %conv44, ptr %cond.sroa.sel62, align 1
  %conv46 = trunc i32 %last_stream_id to i8
  %bytes2.sroa.gep66 = getelementptr inbounds i8, ptr %header, i64 22
  %.sroa.gep67 = getelementptr inbounds i8, ptr %4, i64 13
  %cond.sroa.sel68 = select i1 %tobool.not, ptr %bytes2.sroa.gep66, ptr %.sroa.gep67
  store i8 %conv46, ptr %cond.sroa.sel65, align 1
  %shr48 = lshr i32 %error_code, 24
  %conv49 = trunc i32 %shr48 to i8
  %bytes2.sroa.gep69 = getelementptr inbounds i8, ptr %header, i64 23
  %.sroa.gep70 = getelementptr inbounds i8, ptr %4, i64 14
  %cond.sroa.sel71 = select i1 %tobool.not, ptr %bytes2.sroa.gep69, ptr %.sroa.gep70
  store i8 %conv49, ptr %cond.sroa.sel68, align 1
  %shr51 = lshr i32 %error_code, 16
  %conv52 = trunc i32 %shr51 to i8
  %bytes2.sroa.gep72 = getelementptr inbounds i8, ptr %header, i64 24
  %.sroa.gep73 = getelementptr inbounds i8, ptr %4, i64 15
  %cond.sroa.sel74 = select i1 %tobool.not, ptr %bytes2.sroa.gep72, ptr %.sroa.gep73
  store i8 %conv52, ptr %cond.sroa.sel71, align 1
  %shr54 = lshr i32 %error_code, 8
  %conv55 = trunc i32 %shr54 to i8
  %bytes2.sroa.gep75 = getelementptr inbounds i8, ptr %header, i64 25
  %.sroa.gep76 = getelementptr inbounds i8, ptr %4, i64 16
  %cond.sroa.sel77 = select i1 %tobool.not, ptr %bytes2.sroa.gep75, ptr %.sroa.gep76
  store i8 %conv55, ptr %cond.sroa.sel74, align 1
  %conv57 = trunc i32 %error_code to i8
  %bytes2.sroa.gep78 = getelementptr inbounds i8, ptr %header, i64 26
  %.sroa.gep79 = getelementptr inbounds i8, ptr %4, i64 17
  %cond.sroa.sel80 = select i1 %tobool.not, ptr %bytes2.sroa.gep78, ptr %.sroa.gep79
  store i8 %conv57, ptr %cond.sroa.sel77, align 1
  %5 = load ptr, ptr %header, align 8
  %tobool61.not = icmp eq ptr %5, null
  %6 = load ptr, ptr %bytes, align 8
  %cond70 = select i1 %tobool61.not, ptr %bytes2, ptr %6
  %7 = load i64, ptr %data, align 8
  %conv79 = and i64 %7, 255
  %cond81 = select i1 %tobool61.not, i64 %conv79, i64 %7
  %add.ptr = getelementptr inbounds i8, ptr %cond70, i64 %cond81
  %cmp82.not = icmp eq ptr %cond.sroa.sel80, %add.ptr
  br i1 %cmp82.not, label %do.end87, label %if.then85

if.then85:                                        ; preds = %do.end
  call void @gpr_assertion_failed(ptr noundef nonnull @.str.1, i32 noundef 187, ptr noundef nonnull @.str.5) #17
  unreachable

do.end87:                                         ; preds = %do.end
  call void @grpc_slice_buffer_add(ptr noundef %slice_buffer, ptr noundef nonnull byval(%struct.grpc_slice) align 8 %header)
  call void @grpc_slice_buffer_add(ptr noundef %slice_buffer, ptr noundef nonnull byval(%struct.grpc_slice) align 8 %debug_data)
  ret void
}